target datalayout = "e-m:e-p270:32:32-p271:32:32-p272:64:64-i64:64-i128:128-f80:128-n8:16:32:64-S128"
target triple = "x86_64-pc-linux-gnu"

@.str.18 = private unnamed_addr constant [3 x i8] c">=\00", align 1
@.str.20 = private unnamed_addr constant [22 x i8] c"[%u] compared to [%u]\00", align 1
@.str.23 = private unnamed_addr constant [14 x i8] c"unsigned char\00", align 1

; Function Attrs: nounwind uwtable
define i32 @test_uchar_ge(ptr noundef %0, i32 noundef %1, ptr noundef %2, ptr noundef %3, i8 noundef zeroext %4, i8 noundef zeroext %5) #0 {
  %7 = alloca i32, align 4
  %8 = alloca ptr, align 8
  %9 = alloca i32, align 4
  %10 = alloca ptr, align 8
  %11 = alloca ptr, align 8
  %12 = alloca i8, align 1
  %13 = alloca i8, align 1
  store ptr %0, ptr %8, align 8, !tbaa !3
  store i32 %1, ptr %9, align 4, !tbaa !8
  store ptr %2, ptr %10, align 8, !tbaa !3
  store ptr %3, ptr %11, align 8, !tbaa !3
  store i8 %4, ptr %12, align 1, !tbaa !12
  store i8 %5, ptr %13, align 1, !tbaa !12
  %14 = load i8, ptr %12, align 1, !tbaa !12
  %15 = zext i8 %14 to i32
  %16 = load i8, ptr %13, align 1, !tbaa !12
  %17 = zext i8 %16 to i32
  %18 = icmp sge i32 %15, %17
  br i1 %18, label %19, label %20

19:                                               ; preds = %6
  store i32 1, ptr %7, align 4
  br label %29

20:                                               ; preds = %6
  %21 = load ptr, ptr %8, align 8, !tbaa !3
  %22 = load i32, ptr %9, align 4, !tbaa !8
  %23 = load ptr, ptr %10, align 8, !tbaa !3
  %24 = load ptr, ptr %11, align 8, !tbaa !3
  %25 = load i8, ptr %12, align 1, !tbaa !12
  %26 = zext i8 %25 to i32
  %27 = load i8, ptr %13, align 1, !tbaa !12
  %28 = zext i8 %27 to i32
  call void (ptr, ptr, i32, ptr, ptr, ptr, ptr, ptr, ...) @test_fail_message(ptr noundef null, ptr noundef %21, i32 noundef %22, ptr noundef @.str.23, ptr noundef %23, ptr noundef %24, ptr noundef @.str.18, ptr noundef @.str.20, i32 noundef %26, i32 noundef %28)
  store i32 0, ptr %7, align 4
  br label %29

29:                                               ; preds = %20, %19
  %30 = load i32, ptr %7, align 4
  ret i32 %30
}